target datalayout = "e-m:e-p270:32:32-p271:32:32-p272:64:64-i64:64-i128:128-f80:128-n8:16:32:64-S128"
target triple = "x86_64-unknown-linux-gnu"

%struct.btTypedObject = type { i32 }
%class.btGeneric6DofSpringConstraint = type { %class.btGeneric6DofConstraint.base, [6 x i8], [6 x float], [6 x float], [6 x float], [4 x i8] }
%class.btGeneric6DofConstraint.base = type <{ %class.btTypedConstraint, %class.btTransform, %class.btTransform, [3 x %class.btJacobianEntry], [3 x %class.btJacobianEntry], %class.btTranslationalLimitMotor, [3 x %class.btRotationalLimitMotor], float, %class.btTransform, %class.btTransform, %class.btVector3, [3 x %class.btVector3], %class.btVector3, float, float, i8, [3 x i8], %class.btVector3, i8, i8, [2 x i8], i32, i8 }>
%class.btTypedConstraint = type { ptr, %struct.btTypedObject, i32, %union.anon.0, float, i8, i8, i32, ptr, ptr, float, float, ptr }
%union.anon.0 = type { ptr }
%class.btJacobianEntry = type { %class.btVector3, %class.btVector3, %class.btVector3, %class.btVector3, %class.btVector3, float }
%class.btTranslationalLimitMotor = type { %class.btVector3, %class.btVector3, %class.btVector3, float, float, float, %class.btVector3, %class.btVector3, %class.btVector3, [3 x i8], %class.btVector3, %class.btVector3, %class.btVector3, %class.btVector3, [3 x i32] }
%class.btRotationalLimitMotor = type { float, float, float, float, float, float, float, float, float, float, float, i8, float, float, i32, float }
%class.btTransform = type { %class.btMatrix3x3, %class.btVector3 }
%class.btMatrix3x3 = type { [3 x %class.btVector3] }
%class.btVector3 = type { [4 x float] }

; Function Attrs: mustprogress nounwind uwtable
define linkonce_odr dso_local void @_ZN17btTypedConstraintD2Ev(ptr noundef nonnull align 8 dereferenceable(72) %this) unnamed_addr #1 comdat align 2 {
entry:
  %this.addr = alloca ptr, align 8
  store ptr %this, ptr %this.addr, align 8
  %this1 = load ptr, ptr %this.addr, align 8
  store ptr getelementptr inbounds ({ [13 x ptr] }, ptr @_ZTV17btTypedConstraint, i32 0, i32 0, i32 2), ptr %this1, align 8
  ret void
}

; Function Attrs: mustprogress nounwind uwtable
define linkonce_odr dso_local void @_ZN23btGeneric6DofConstraintD2Ev(ptr noundef nonnull align 8 dereferenceable(1333) %this) unnamed_addr #1 comdat align 2 {
entry:
  %this.addr = alloca ptr, align 8
  store ptr %this, ptr %this.addr, align 8
  %this1 = load ptr, ptr %this.addr, align 8
  call void @_ZN17btTypedConstraintD2Ev(ptr noundef nonnull align 8 dereferenceable(72) %this1) #10
  ret void
}

; Function Attrs: mustprogress nounwind uwtable
define dso_local void @_ZN29btGeneric6DofSpringConstraint4initEv(ptr noundef nonnull align 8 dereferenceable(1412) %this) #1 align 2 {
entry:
  %this.addr = alloca ptr, align 8
  %i = alloca i32, align 4
  store ptr %this, ptr %this.addr, align 8
  %this1 = load ptr, ptr %this.addr, align 8
  %add.ptr = getelementptr inbounds i8, ptr %this1, i64 8
  %m_objectType = getelementptr inbounds %struct.btTypedObject, ptr %add.ptr, i32 0, i32 0
  store i32 9, ptr %m_objectType, align 8
  store i32 0, ptr %i, align 4
  br label %for.cond

for.cond:                                         ; preds = %for.inc, %entry
  %0 = load i32, ptr %i, align 4
  %cmp = icmp slt i32 %0, 6
  br i1 %cmp, label %for.body, label %for.end

for.body:                                         ; preds = %for.cond
  %m_springEnabled = getelementptr inbounds %class.btGeneric6DofSpringConstraint, ptr %this1, i32 0, i32 1
  %1 = load i32, ptr %i, align 4
  %idxprom = sext i32 %1 to i64
  %arrayidx = getelementptr inbounds [6 x i8], ptr %m_springEnabled, i64 0, i64 %idxprom
  store i8 0, ptr %arrayidx, align 1
  %m_equilibriumPoint = getelementptr inbounds %class.btGeneric6DofSpringConstraint, ptr %this1, i32 0, i32 2
  %2 = load i32, ptr %i, align 4
  %idxprom2 = sext i32 %2 to i64
  %arrayidx3 = getelementptr inbounds [6 x float], ptr %m_equilibriumPoint, i64 0, i64 %idxprom2
  store float 0.000000e+00, ptr %arrayidx3, align 4
  %m_springStiffness = getelementptr inbounds %class.btGeneric6DofSpringConstraint, ptr %this1, i32 0, i32 3
  %3 = load i32, ptr %i, align 4
  %idxprom4 = sext i32 %3 to i64
  %arrayidx5 = getelementptr inbounds [6 x float], ptr %m_springStiffness, i64 0, i64 %idxprom4
  store float 0.000000e+00, ptr %arrayidx5, align 4
  %m_springDamping = getelementptr inbounds %class.btGeneric6DofSpringConstraint, ptr %this1, i32 0, i32 4
  %4 = load i32, ptr %i, align 4
  %idxprom6 = sext i32 %4 to i64
  %arrayidx7 = getelementptr inbounds [6 x float], ptr %m_springDamping, i64 0, i64 %idxprom6
  store float 1.000000e+00, ptr %arrayidx7, align 4
  br label %for.inc

for.inc:                                          ; preds = %for.body
  %5 = load i32, ptr %i, align 4
  %inc = add nsw i32 %5, 1
  store i32 %inc, ptr %i, align 4
  br label %for.cond, !llvm.loop !5

for.end:                                          ; preds = %for.cond
  ret void
}

; Function Attrs: mustprogress uwtable
define dso_local void @_ZN29btGeneric6DofSpringConstraintC2ER11btRigidBodyS1_RK11btTransformS4_b(ptr noundef nonnull align 8 dereferenceable(1412) %this, ptr noundef nonnull align 8 dereferenceable(744) %rbA, ptr noundef nonnull align 8 dereferenceable(744) %rbB, ptr noundef nonnull align 4 dereferenceable(64) %frameInA, ptr noundef nonnull align 4 dereferenceable(64) %frameInB, i1 noundef zeroext %useLinearReferenceFrameA) unnamed_addr #2 align 2 personality ptr @__gxx_personality_v0 {
entry:
  %this.addr = alloca ptr, align 8
  %rbA.addr = alloca ptr, align 8
  %rbB.addr = alloca ptr, align 8
  %frameInA.addr = alloca ptr, align 8
  %frameInB.addr = alloca ptr, align 8
  %useLinearReferenceFrameA.addr = alloca i8, align 1
  %exn.slot = alloca ptr, align 8
  %ehselector.slot = alloca i32, align 4
  store ptr %this, ptr %this.addr, align 8
  store ptr %rbA, ptr %rbA.addr, align 8
  store ptr %rbB, ptr %rbB.addr, align 8
  store ptr %frameInA, ptr %frameInA.addr, align 8
  store ptr %frameInB, ptr %frameInB.addr, align 8
  %frombool = zext i1 %useLinearReferenceFrameA to i8
  store i8 %frombool, ptr %useLinearReferenceFrameA.addr, align 1
  %this1 = load ptr, ptr %this.addr, align 8
  %0 = load ptr, ptr %rbA.addr, align 8
  %1 = load ptr, ptr %rbB.addr, align 8
  %2 = load ptr, ptr %frameInA.addr, align 8
  %3 = load ptr, ptr %frameInB.addr, align 8
  %4 = load i8, ptr %useLinearReferenceFrameA.addr, align 1
  %tobool = trunc i8 %4 to i1
  call void @_ZN23btGeneric6DofConstraintC2ER11btRigidBodyS1_RK11btTransformS4_b(ptr noundef nonnull align 8 dereferenceable(1333) %this1, ptr noundef nonnull align 8 dereferenceable(744) %0, ptr noundef nonnull align 8 dereferenceable(744) %1, ptr noundef nonnull align 4 dereferenceable(64) %2, ptr noundef nonnull align 4 dereferenceable(64) %3, i1 noundef zeroext %tobool)
  store ptr getelementptr inbounds ({ [16 x ptr] }, ptr @_ZTV29btGeneric6DofSpringConstraint, i32 0, i32 0, i32 2), ptr %this1, align 8
  invoke void @_ZN29btGeneric6DofSpringConstraint4initEv(ptr noundef nonnull align 8 dereferenceable(1412) %this1)
          to label %invoke.cont unwind label %lpad

invoke.cont:                                      ; preds = %entry
  ret void

lpad:                                             ; preds = %entry
  %5 = landingpad { ptr, i32 }
          cleanup
  %6 = extractvalue { ptr, i32 } %5, 0
  store ptr %6, ptr %exn.slot, align 8
  %7 = extractvalue { ptr, i32 } %5, 1
  store i32 %7, ptr %ehselector.slot, align 4
  call void @_ZN23btGeneric6DofConstraintD2Ev(ptr noundef nonnull align 8 dereferenceable(1333) %this1) #10
  br label %eh.resume

eh.resume:                                        ; preds = %lpad
  %exn = load ptr, ptr %exn.slot, align 8
  %sel = load i32, ptr %ehselector.slot, align 4
  %lpad.val = insertvalue { ptr, i32 } poison, ptr %exn, 0
  %lpad.val2 = insertvalue { ptr, i32 } %lpad.val, i32 %sel, 1
  resume { ptr, i32 } %lpad.val2
}