; Function Attrs: mustprogress uwtable
define dso_local void @_ZN29btGeneric6DofSpringConstraintC2ER11btRigidBodyS1_RK11btTransformS4_b(ptr noundef nonnull align 8 dereferenceable(1412) %this, ptr noundef nonnull align 8 dereferenceable(744) %rbA, ptr noundef nonnull align 8 dereferenceable(744) %rbB, ptr noundef nonnull align 4 dereferenceable(64) %frameInA, ptr noundef nonnull align 4 dereferenceable(64) %frameInB, i1 noundef zeroext %useLinearReferenceFrameA) unnamed_addr #1 align 2 personality ptr @__gxx_personality_v0 {
entry:
  tail call void @_ZN23btGeneric6DofConstraintC2ER11btRigidBodyS1_RK11btTransformS4_b(ptr noundef nonnull align 8 dereferenceable(1333) %this, ptr noundef nonnull align 8 dereferenceable(744) %rbA, ptr noundef nonnull align 8 dereferenceable(744) %rbB, ptr noundef nonnull align 4 dereferenceable(64) %frameInA, ptr noundef nonnull align 4 dereferenceable(64) %frameInB, i1 noundef zeroext %useLinearReferenceFrameA)
  store ptr getelementptr inbounds ({ [16 x ptr] }, ptr @_ZTV29btGeneric6DofSpringConstraint, i64 0, i32 0, i64 2), ptr %this, align 8
  %add.ptr.i = getelementptr inbounds i8, ptr %this, i64 8
  store i32 9, ptr %add.ptr.i, align 8
  %m_springEnabled.i = getelementptr inbounds i8, ptr %this, i64 1333
  %m_equilibriumPoint.i = getelementptr inbounds i8, ptr %this, i64 1340
  %m_springDamping.i = getelementptr inbounds i8, ptr %this, i64 1388
  tail call void @llvm.memset.p0.i64(ptr noundef nonnull align 1 dereferenceable(6) %m_springEnabled.i, i8 0, i64 6, i1 false)
  tail call void @llvm.memset.p0.i64(ptr noundef nonnull align 4 dereferenceable(48) %m_equilibriumPoint.i, i8 0, i64 48, i1 false)
  br label %for.body.i

for.body.i:                                       ; preds = %for.body.i, %entry
  %indvars.iv.i = phi i64 [ 0, %entry ], [ %indvars.iv.next.i, %for.body.i ]
  %arrayidx7.i = getelementptr inbounds [6 x float], ptr %m_springDamping.i, i64 0, i64 %indvars.iv.i
  store float 1.000000e+00, ptr %arrayidx7.i, align 4
  %indvars.iv.next.i = add nuw nsw i64 %indvars.iv.i, 1
  %exitcond.not.i = icmp eq i64 %indvars.iv.next.i, 6
  br i1 %exitcond.not.i, label %_ZN29btGeneric6DofSpringConstraint4initEv.exit, label %for.body.i, !llvm.loop !5

_ZN29btGeneric6DofSpringConstraint4initEv.exit:   ; preds = %for.body.i
  ret void
}